; ModuleID = '34/273.c'
source_filename = "34/273.c"
target datalayout = "e-m:e-p270:32:32-p271:32:32-p272:64:64-i64:64-f80:128-n8:16:32:64-S128"
target triple = "x86_64-pc-linux-gnu"

@.str = private unnamed_addr constant [3 x i8] c"%d\00", align 1
@.str.1 = private unnamed_addr constant [5 x i8] c"End\0A\00", align 1
@.str.2 = private unnamed_addr constant [11 x i8] c"%d*3+1=%d\0A\00", align 1
@.str.3 = private unnamed_addr constant [9 x i8] c"%d/2=%d\0A\00", align 1

; Function Attrs: noinline nounwind uwtable
define dso_local void @main() #0 {
  %1 = alloca i32, align 4
  %2 = alloca i32, align 4
  %3 = alloca i32, align 4
  %4 = alloca i32, align 4
  %5 = alloca i32, align 4
  %6 = alloca i32, align 4
  store i32 0, i32* %2, align 4
  %7 = call i32 (i8*, ...) @__isoc99_scanf(i8* getelementptr inbounds ([3 x i8], [3 x i8]* @.str, i64 0, i64 0), i32* %1)
  %8 = load i32, i32* %1, align 4
  %9 = icmp eq i32 %8, 1
  br i1 %9, label %10, label %12

10:                                               ; preds = %0
  %11 = call i32 (i8*, ...) @printf(i8* getelementptr inbounds ([5 x i8], [5 x i8]* @.str.1, i64 0, i64 0))
  br label %41

12:                                               ; preds = %0
  br label %13

13:                                               ; preds = %38, %12
  %14 = load i32, i32* %2, align 4
  %15 = icmp ne i32 %14, 1
  br i1 %15, label %16, label %39

16:                                               ; preds = %13
  %17 = load i32, i32* %1, align 4
  %18 = srem i32 %17, 2
  %19 = icmp ne i32 %18, 0
  br i1 %19, label %20, label %29

20:                                               ; preds = %16
  %21 = load i32, i32* %1, align 4
  %22 = mul nsw i32 3, %21
  %23 = add nsw i32 %22, 1
  store i32 %23, i32* %3, align 4
  %24 = load i32, i32* %1, align 4
  store i32 %24, i32* %4, align 4
  %25 = load i32, i32* %3, align 4
  store i32 %25, i32* %1, align 4
  %26 = load i32, i32* %4, align 4
  %27 = load i32, i32* %3, align 4
  %28 = call i32 (i8*, ...) @printf(i8* getelementptr inbounds ([11 x i8], [11 x i8]* @.str.2, i64 0, i64 0), i32 %26, i32 %27)
  br label %38

29:                                               ; preds = %16
  %30 = load i32, i32* %1, align 4
  %31 = sdiv i32 %30, 2
  store i32 %31, i32* %5, align 4
  %32 = load i32, i32* %1, align 4
  store i32 %32, i32* %6, align 4
  %33 = load i32, i32* %5, align 4
  store i32 %33, i32* %1, align 4
  %34 = load i32, i32* %5, align 4
  store i32 %34, i32* %2, align 4
  %35 = load i32, i32* %6, align 4
  %36 = load i32, i32* %5, align 4
  %37 = call i32 (i8*, ...) @printf(i8* getelementptr inbounds ([9 x i8], [9 x i8]* @.str.3, i64 0, i64 0), i32 %35, i32 %36)
  br label %38

38:                                               ; preds = %29, %20
  br label %13

39:                                               ; preds = %13
  %40 = call i32 (i8*, ...) @printf(i8* getelementptr inbounds ([5 x i8], [5 x i8]* @.str.1, i64 0, i64 0))
  br label %41

41:                                               ; preds = %39, %10
  ret void
}

declare dso_local i32 @__isoc99_scanf(i8*, ...) #1

declare dso_local i32 @printf(i8*, ...) #1


!llvm.module.flags = !{!0}
!llvm.ident = !{!1}

!0 = !{i32 1, !"wchar_size", i32 4}
!1 = !{!"clang version 10.0.0-4ubuntu1 "}
